target datalayout = "e-m:e-p270:32:32-p271:32:32-p272:64:64-i64:64-i128:128-f80:128-n8:16:32:64-S128"
target triple = "x86_64-pc-linux-gnu"

%"struct.std::_Deque_iterator" = type { ptr, ptr, ptr, ptr }
%"class.cv::MotionJpegCapture" = type { %"class.cv::IVideoCapture", %"struct.cv::Ptr", i8, %"class.std::deque", %"struct.std::_Deque_iterator", %"class.cv::Mat", i32, i32, double }
%"class.cv::IVideoCapture" = type { ptr }
%"struct.cv::Ptr" = type { %"class.std::shared_ptr" }
%"class.std::shared_ptr" = type { %"class.std::__shared_ptr" }
%"class.std::__shared_ptr" = type { ptr, %"class.std::__shared_count" }
%"class.std::__shared_count" = type { ptr }
%"class.std::deque" = type { %"class.std::_Deque_base" }
%"class.std::_Deque_base" = type { %"struct.std::_Deque_base<std::pair<unsigned long, unsigned int>, std::allocator<std::pair<unsigned long, unsigned int>>>::_Deque_impl" }
%"struct.std::_Deque_base<std::pair<unsigned long, unsigned int>, std::allocator<std::pair<unsigned long, unsigned int>>>::_Deque_impl" = type { %"struct.std::_Deque_base<std::pair<unsigned long, unsigned int>, std::allocator<std::pair<unsigned long, unsigned int>>>::_Deque_impl_data" }
%"struct.std::_Deque_base<std::pair<unsigned long, unsigned int>, std::allocator<std::pair<unsigned long, unsigned int>>>::_Deque_impl_data" = type { ptr, i64, %"struct.std::_Deque_iterator", %"struct.std::_Deque_iterator" }
%"class.cv::Mat" = type { i32, i32, i32, i32, ptr, ptr, ptr, ptr, ptr, ptr, %"struct.cv::MatSize", %"struct.cv::MatStep" }
%"struct.cv::MatSize" = type { ptr }
%"struct.cv::MatStep" = type { ptr, [2 x i64] }
%"struct.std::pair" = type <{ i64, i32, [4 x i8] }>

; Function Attrs: noinline noreturn nounwind uwtable
define linkonce_odr hidden void @__clang_call_terminate(ptr noundef %0) #10 comdat {
  %2 = call ptr @__cxa_begin_catch(ptr %0) #3
  call void @_ZSt9terminatev() #19
  unreachable
}

; Function Attrs: inlinehint mustprogress nounwind uwtable
define linkonce_odr noundef i64 @_ZSt16__deque_buf_sizem(i64 noundef %0) #8 comdat {
  %2 = alloca i64, align 8
  store i64 %0, ptr %2, align 8, !tbaa !46
  %3 = load i64, ptr %2, align 8, !tbaa !46
  %4 = icmp ult i64 %3, 512
  br i1 %4, label %5, label %8

5:                                                ; preds = %1
  %6 = load i64, ptr %2, align 8, !tbaa !46
  %7 = udiv i64 512, %6
  br label %9

8:                                                ; preds = %1
  br label %9

9:                                                ; preds = %8, %5
  %10 = phi i64 [ %7, %5 ], [ 1, %8 ]
  ret i64 %10
}

; Function Attrs: mustprogress nounwind uwtable
define linkonce_odr hidden void @_ZNSt15_Deque_iteratorISt4pairImjERS1_PS1_E11_M_set_nodeEPS3_(ptr noundef nonnull align 8 dereferenceable(32) %0, ptr noundef %1) #4 comdat align 2 {
  %3 = alloca ptr, align 8
  %4 = alloca ptr, align 8
  store ptr %0, ptr %3, align 8, !tbaa !44
  store ptr %1, ptr %4, align 8, !tbaa !41
  %5 = load ptr, ptr %3, align 8
  %6 = load ptr, ptr %4, align 8, !tbaa !41
  %7 = getelementptr inbounds nuw %"struct.std::_Deque_iterator", ptr %5, i32 0, i32 3
  store ptr %6, ptr %7, align 8, !tbaa !57
  %8 = load ptr, ptr %4, align 8, !tbaa !41
  %9 = load ptr, ptr %8, align 8, !tbaa !40
  %10 = getelementptr inbounds nuw %"struct.std::_Deque_iterator", ptr %5, i32 0, i32 1
  store ptr %9, ptr %10, align 8, !tbaa !58
  %11 = getelementptr inbounds nuw %"struct.std::_Deque_iterator", ptr %5, i32 0, i32 1
  %12 = load ptr, ptr %11, align 8, !tbaa !58
  %13 = call noundef i64 @_ZNSt15_Deque_iteratorISt4pairImjERS1_PS1_E14_S_buffer_sizeEv() #3
  %14 = getelementptr inbounds %"struct.std::pair", ptr %12, i64 %13
  %15 = getelementptr inbounds nuw %"struct.std::_Deque_iterator", ptr %5, i32 0, i32 2
  store ptr %14, ptr %15, align 8, !tbaa !56
  ret void
}

; Function Attrs: mustprogress nounwind uwtable
define linkonce_odr hidden noundef i64 @_ZNSt15_Deque_iteratorISt4pairImjERS1_PS1_E14_S_buffer_sizeEv() #4 comdat align 2 personality ptr @__gxx_personality_v0 {
  %1 = invoke noundef i64 @_ZSt16__deque_buf_sizem(i64 noundef 16)
          to label %2 unwind label %3

2:                                                ; preds = %0
  ret i64 %1

3:                                                ; preds = %0
  %4 = landingpad { ptr, i32 }
          catch ptr null
  %5 = extractvalue { ptr, i32 } %4, 0
  call void @__clang_call_terminate(ptr %5) #19
  unreachable
}

; Function Attrs: mustprogress nounwind uwtable
define linkonce_odr hidden noundef nonnull align 8 dereferenceable(32) ptr @_ZNSt15_Deque_iteratorISt4pairImjERS1_PS1_EpLEl(ptr noundef nonnull align 8 dereferenceable(32) %0, i64 noundef %1) #4 comdat align 2 {
  %3 = alloca ptr, align 8
  %4 = alloca i64, align 8
  %5 = alloca i64, align 8
  %6 = alloca i64, align 8
  store ptr %0, ptr %3, align 8, !tbaa !44
  store i64 %1, ptr %4, align 8, !tbaa !46
  %7 = load ptr, ptr %3, align 8
  call void @llvm.lifetime.start.p0(i64 8, ptr %5) #3
  %8 = load i64, ptr %4, align 8, !tbaa !46
  %9 = getelementptr inbounds nuw %"struct.std::_Deque_iterator", ptr %7, i32 0, i32 0
  %10 = load ptr, ptr %9, align 8, !tbaa !55
  %11 = getelementptr inbounds nuw %"struct.std::_Deque_iterator", ptr %7, i32 0, i32 1
  %12 = load ptr, ptr %11, align 8, !tbaa !58
  %13 = ptrtoint ptr %10 to i64
  %14 = ptrtoint ptr %12 to i64
  %15 = sub i64 %13, %14
  %16 = sdiv exact i64 %15, 16
  %17 = add nsw i64 %8, %16
  store i64 %17, ptr %5, align 8, !tbaa !46
  %18 = load i64, ptr %5, align 8, !tbaa !46
  %19 = icmp sge i64 %18, 0
  br i1 %19, label %20, label %29

20:                                               ; preds = %2
  %21 = load i64, ptr %5, align 8, !tbaa !46
  %22 = call noundef i64 @_ZNSt15_Deque_iteratorISt4pairImjERS1_PS1_E14_S_buffer_sizeEv() #3
  %23 = icmp slt i64 %21, %22
  br i1 %23, label %24, label %29

24:                                               ; preds = %20
  %25 = load i64, ptr %4, align 8, !tbaa !46
  %26 = getelementptr inbounds nuw %"struct.std::_Deque_iterator", ptr %7, i32 0, i32 0
  %27 = load ptr, ptr %26, align 8, !tbaa !55
  %28 = getelementptr inbounds %"struct.std::pair", ptr %27, i64 %25
  store ptr %28, ptr %26, align 8, !tbaa !55
  br label %59

29:                                               ; preds = %20, %2
  call void @llvm.lifetime.start.p0(i64 8, ptr %6) #3
  %30 = load i64, ptr %5, align 8, !tbaa !46
  %31 = icmp sgt i64 %30, 0
  br i1 %31, label %32, label %36

32:                                               ; preds = %29
  %33 = load i64, ptr %5, align 8, !tbaa !46
  %34 = call noundef i64 @_ZNSt15_Deque_iteratorISt4pairImjERS1_PS1_E14_S_buffer_sizeEv() #3
  %35 = sdiv i64 %33, %34
  br label %44

36:                                               ; preds = %29
  %37 = load i64, ptr %5, align 8, !tbaa !46
  %38 = sub nsw i64 0, %37
  %39 = sub nsw i64 %38, 1
  %40 = call noundef i64 @_ZNSt15_Deque_iteratorISt4pairImjERS1_PS1_E14_S_buffer_sizeEv() #3
  %41 = udiv i64 %39, %40
  %42 = sub nsw i64 0, %41
  %43 = sub nsw i64 %42, 1
  br label %44

44:                                               ; preds = %36, %32
  %45 = phi i64 [ %35, %32 ], [ %43, %36 ]
  store i64 %45, ptr %6, align 8, !tbaa !46
  %46 = getelementptr inbounds nuw %"struct.std::_Deque_iterator", ptr %7, i32 0, i32 3
  %47 = load ptr, ptr %46, align 8, !tbaa !57
  %48 = load i64, ptr %6, align 8, !tbaa !46
  %49 = getelementptr inbounds ptr, ptr %47, i64 %48
  call void @_ZNSt15_Deque_iteratorISt4pairImjERS1_PS1_E11_M_set_nodeEPS3_(ptr noundef nonnull align 8 dereferenceable(32) %7, ptr noundef %49) #3
  %50 = getelementptr inbounds nuw %"struct.std::_Deque_iterator", ptr %7, i32 0, i32 1
  %51 = load ptr, ptr %50, align 8, !tbaa !58
  %52 = load i64, ptr %5, align 8, !tbaa !46
  %53 = load i64, ptr %6, align 8, !tbaa !46
  %54 = call noundef i64 @_ZNSt15_Deque_iteratorISt4pairImjERS1_PS1_E14_S_buffer_sizeEv() #3
  %55 = mul nsw i64 %53, %54
  %56 = sub nsw i64 %52, %55
  %57 = getelementptr inbounds %"struct.std::pair", ptr %51, i64 %56
  %58 = getelementptr inbounds nuw %"struct.std::_Deque_iterator", ptr %7, i32 0, i32 0
  store ptr %57, ptr %58, align 8, !tbaa !55
  call void @llvm.lifetime.end.p0(i64 8, ptr %6) #3
  br label %59

59:                                               ; preds = %44, %24
  call void @llvm.lifetime.end.p0(i64 8, ptr %5) #3
  ret ptr %7
}

; Function Attrs: mustprogress nounwind uwtable
define linkonce_odr noundef i64 @_ZStmiRKSt15_Deque_iteratorISt4pairImjERS1_PS1_ES6_(ptr noundef nonnull align 8 dereferenceable(32) %0, ptr noundef nonnull align 8 dereferenceable(32) %1) #4 comdat {
  %3 = alloca ptr, align 8
  %4 = alloca ptr, align 8
  store ptr %0, ptr %3, align 8, !tbaa !44
  store ptr %1, ptr %4, align 8, !tbaa !44
  %5 = call noundef i64 @_ZNSt15_Deque_iteratorISt4pairImjERS1_PS1_E14_S_buffer_sizeEv() #3
  %6 = load ptr, ptr %3, align 8, !tbaa !44
  %7 = getelementptr inbounds nuw %"struct.std::_Deque_iterator", ptr %6, i32 0, i32 3
  %8 = load ptr, ptr %7, align 8, !tbaa !57
  %9 = load ptr, ptr %4, align 8, !tbaa !44
  %10 = getelementptr inbounds nuw %"struct.std::_Deque_iterator", ptr %9, i32 0, i32 3
  %11 = load ptr, ptr %10, align 8, !tbaa !57
  %12 = ptrtoint ptr %8 to i64
  %13 = ptrtoint ptr %11 to i64
  %14 = sub i64 %12, %13
  %15 = sdiv exact i64 %14, 8
  %16 = load ptr, ptr %3, align 8, !tbaa !44
  %17 = getelementptr inbounds nuw %"struct.std::_Deque_iterator", ptr %16, i32 0, i32 3
  %18 = load ptr, ptr %17, align 8, !tbaa !57
  %19 = icmp ne ptr %18, null
  %20 = zext i1 %19 to i64
  %21 = sub nsw i64 %15, %20
  %22 = mul nsw i64 %5, %21
  %23 = load ptr, ptr %3, align 8, !tbaa !44
  %24 = getelementptr inbounds nuw %"struct.std::_Deque_iterator", ptr %23, i32 0, i32 0
  %25 = load ptr, ptr %24, align 8, !tbaa !55
  %26 = load ptr, ptr %3, align 8, !tbaa !44
  %27 = getelementptr inbounds nuw %"struct.std::_Deque_iterator", ptr %26, i32 0, i32 1
  %28 = load ptr, ptr %27, align 8, !tbaa !58
  %29 = ptrtoint ptr %25 to i64
  %30 = ptrtoint ptr %28 to i64
  %31 = sub i64 %29, %30
  %32 = sdiv exact i64 %31, 16
  %33 = add nsw i64 %22, %32
  %34 = load ptr, ptr %4, align 8, !tbaa !44
  %35 = getelementptr inbounds nuw %"struct.std::_Deque_iterator", ptr %34, i32 0, i32 2
  %36 = load ptr, ptr %35, align 8, !tbaa !56
  %37 = load ptr, ptr %4, align 8, !tbaa !44
  %38 = getelementptr inbounds nuw %"struct.std::_Deque_iterator", ptr %37, i32 0, i32 0
  %39 = load ptr, ptr %38, align 8, !tbaa !55
  %40 = ptrtoint ptr %36 to i64
  %41 = ptrtoint ptr %39 to i64
  %42 = sub i64 %40, %41
  %43 = sdiv exact i64 %42, 16
  %44 = add nsw i64 %33, %43
  ret i64 %44
}

; Function Attrs: mustprogress nounwind uwtable
define linkonce_odr hidden void @_ZNSt15_Deque_iteratorISt4pairImjERS1_PS1_EC2ERKS4_(ptr noundef nonnull align 8 dereferenceable(32) %0, ptr noundef nonnull align 8 dereferenceable(32) %1) unnamed_addr #4 comdat align 2 {
  %3 = alloca ptr, align 8
  %4 = alloca ptr, align 8
  store ptr %0, ptr %3, align 8, !tbaa !44
  store ptr %1, ptr %4, align 8, !tbaa !44
  %5 = load ptr, ptr %3, align 8
  %6 = getelementptr inbounds nuw %"struct.std::_Deque_iterator", ptr %5, i32 0, i32 0
  %7 = load ptr, ptr %4, align 8, !tbaa !44
  %8 = getelementptr inbounds nuw %"struct.std::_Deque_iterator", ptr %7, i32 0, i32 0
  %9 = load ptr, ptr %8, align 8, !tbaa !55
  store ptr %9, ptr %6, align 8, !tbaa !55
  %10 = getelementptr inbounds nuw %"struct.std::_Deque_iterator", ptr %5, i32 0, i32 1
  %11 = load ptr, ptr %4, align 8, !tbaa !44
  %12 = getelementptr inbounds nuw %"struct.std::_Deque_iterator", ptr %11, i32 0, i32 1
  %13 = load ptr, ptr %12, align 8, !tbaa !58
  store ptr %13, ptr %10, align 8, !tbaa !58
  %14 = getelementptr inbounds nuw %"struct.std::_Deque_iterator", ptr %5, i32 0, i32 2
  %15 = load ptr, ptr %4, align 8, !tbaa !44
  %16 = getelementptr inbounds nuw %"struct.std::_Deque_iterator", ptr %15, i32 0, i32 2
  %17 = load ptr, ptr %16, align 8, !tbaa !56
  store ptr %17, ptr %14, align 8, !tbaa !56
  %18 = getelementptr inbounds nuw %"struct.std::_Deque_iterator", ptr %5, i32 0, i32 3
  %19 = load ptr, ptr %4, align 8, !tbaa !44
  %20 = getelementptr inbounds nuw %"struct.std::_Deque_iterator", ptr %19, i32 0, i32 3
  %21 = load ptr, ptr %20, align 8, !tbaa !57
  store ptr %21, ptr %18, align 8, !tbaa !57
  ret void
}

; Function Attrs: mustprogress nounwind uwtable
define linkonce_odr void @_ZStplRKSt15_Deque_iteratorISt4pairImjERS1_PS1_El(ptr dead_on_unwind noalias writable sret(%"struct.std::_Deque_iterator") align 8 %0, ptr noundef nonnull align 8 dereferenceable(32) %1, i64 noundef %2) #4 comdat {
  %4 = alloca ptr, align 8
  %5 = alloca ptr, align 8
  %6 = alloca i64, align 8
  store ptr %0, ptr %4, align 8
  store ptr %1, ptr %5, align 8, !tbaa !44
  store i64 %2, ptr %6, align 8, !tbaa !46
  %7 = load ptr, ptr %5, align 8, !tbaa !44
  call void @_ZNSt15_Deque_iteratorISt4pairImjERS1_PS1_EC2ERKS4_(ptr noundef nonnull align 8 dereferenceable(32) %0, ptr noundef nonnull align 8 dereferenceable(32) %7) #3
  %8 = load i64, ptr %6, align 8, !tbaa !46
  %9 = call noundef nonnull align 8 dereferenceable(32) ptr @_ZNSt15_Deque_iteratorISt4pairImjERS1_PS1_EpLEl(ptr noundef nonnull align 8 dereferenceable(32) %0, i64 noundef %8) #3
  ret void
}

; Function Attrs: mustprogress nounwind uwtable
define linkonce_odr hidden void @_ZNSt5dequeISt4pairImjESaIS1_EE5beginEv(ptr dead_on_unwind noalias writable sret(%"struct.std::_Deque_iterator") align 8 %0, ptr noundef nonnull align 8 dereferenceable(80) %1) #4 comdat align 2 {
  %3 = alloca ptr, align 8
  %4 = alloca ptr, align 8
  store ptr %0, ptr %3, align 8
  store ptr %1, ptr %4, align 8, !tbaa !42
  %5 = load ptr, ptr %4, align 8
  %6 = getelementptr inbounds nuw %"class.std::_Deque_base", ptr %5, i32 0, i32 0
  %7 = getelementptr inbounds nuw %"struct.std::_Deque_base<std::pair<unsigned long, unsigned int>, std::allocator<std::pair<unsigned long, unsigned int>>>::_Deque_impl_data", ptr %6, i32 0, i32 2
  call void @_ZNSt15_Deque_iteratorISt4pairImjERS1_PS1_EC2ERKS4_(ptr noundef nonnull align 8 dereferenceable(32) %0, ptr noundef nonnull align 8 dereferenceable(32) %7) #3
  ret void
}

; Function Attrs: mustprogress nounwind uwtable
define linkonce_odr hidden noundef i64 @_ZNKSt5dequeISt4pairImjESaIS1_EE4sizeEv(ptr noundef nonnull align 8 dereferenceable(80) %0) #4 comdat align 2 {
  %2 = alloca ptr, align 8
  store ptr %0, ptr %2, align 8, !tbaa !42
  %3 = load ptr, ptr %2, align 8
  %4 = getelementptr inbounds nuw %"class.std::_Deque_base", ptr %3, i32 0, i32 0
  %5 = getelementptr inbounds nuw %"struct.std::_Deque_base<std::pair<unsigned long, unsigned int>, std::allocator<std::pair<unsigned long, unsigned int>>>::_Deque_impl_data", ptr %4, i32 0, i32 3
  %6 = getelementptr inbounds nuw %"class.std::_Deque_base", ptr %3, i32 0, i32 0
  %7 = getelementptr inbounds nuw %"struct.std::_Deque_base<std::pair<unsigned long, unsigned int>, std::allocator<std::pair<unsigned long, unsigned int>>>::_Deque_impl_data", ptr %6, i32 0, i32 2
  %8 = call noundef i64 @_ZStmiRKSt15_Deque_iteratorISt4pairImjERS1_PS1_ES6_(ptr noundef nonnull align 8 dereferenceable(32) %5, ptr noundef nonnull align 8 dereferenceable(32) %7) #3
  ret i64 %8
}

; Function Attrs: mustprogress nounwind uwtable
define linkonce_odr hidden void @_ZNSt5dequeISt4pairImjESaIS1_EE3endEv(ptr dead_on_unwind noalias writable sret(%"struct.std::_Deque_iterator") align 8 %0, ptr noundef nonnull align 8 dereferenceable(80) %1) #4 comdat align 2 {
  %3 = alloca ptr, align 8
  %4 = alloca ptr, align 8
  store ptr %0, ptr %3, align 8
  store ptr %1, ptr %4, align 8, !tbaa !42
  %5 = load ptr, ptr %4, align 8
  %6 = getelementptr inbounds nuw %"class.std::_Deque_base", ptr %5, i32 0, i32 0
  %7 = getelementptr inbounds nuw %"struct.std::_Deque_base<std::pair<unsigned long, unsigned int>, std::allocator<std::pair<unsigned long, unsigned int>>>::_Deque_impl_data", ptr %6, i32 0, i32 3
  call void @_ZNSt15_Deque_iteratorISt4pairImjERS1_PS1_EC2ERKS4_(ptr noundef nonnull align 8 dereferenceable(32) %0, ptr noundef nonnull align 8 dereferenceable(32) %7) #3
  ret void
}

; Function Attrs: mustprogress nounwind uwtable
define hidden noundef zeroext i1 @_ZN2cv17MotionJpegCapture11setPropertyEid(ptr noundef nonnull align 8 dereferenceable(256) %0, i32 noundef %1, double noundef %2) unnamed_addr #4 align 2 {
  %4 = alloca i1, align 1
  %5 = alloca ptr, align 8
  %6 = alloca i32, align 4
  %7 = alloca double, align 8
  %8 = alloca %"struct.std::_Deque_iterator", align 8
  %9 = alloca %"struct.std::_Deque_iterator", align 8
  %10 = alloca %"struct.std::_Deque_iterator", align 8
  store ptr %0, ptr %5, align 8, !tbaa !3
  store i32 %1, ptr %6, align 4, !tbaa !8
  store double %2, ptr %7, align 8, !tbaa !10
  %11 = load ptr, ptr %5, align 8
  %12 = load i32, ptr %6, align 4, !tbaa !8
  %13 = icmp eq i32 %12, 1
  br i1 %13, label %14, label %38

14:                                               ; preds = %3
  %15 = load double, ptr %7, align 8, !tbaa !10
  %16 = fptosi double %15 to i32
  %17 = icmp eq i32 %16, 0
  br i1 %17, label %18, label %22

18:                                               ; preds = %14
  %19 = getelementptr inbounds nuw %"class.cv::MotionJpegCapture", ptr %11, i32 0, i32 2
  store i8 1, ptr %19, align 8, !tbaa !12
  call void @llvm.lifetime.start.p0(i64 32, ptr %8) #3
  %20 = getelementptr inbounds nuw %"class.cv::MotionJpegCapture", ptr %11, i32 0, i32 3
  call void @_ZNSt5dequeISt4pairImjESaIS1_EE3endEv(ptr dead_on_unwind writable sret(%"struct.std::_Deque_iterator") align 8 %8, ptr noundef nonnull align 8 dereferenceable(80) %20) #3
  %21 = getelementptr inbounds nuw %"class.cv::MotionJpegCapture", ptr %11, i32 0, i32 4
  call void @llvm.memcpy.p0.p0.i64(ptr align 8 %21, ptr align 8 %8, i64 32, i1 false), !tbaa.struct !39
  call void @llvm.lifetime.end.p0(i64 32, ptr %8) #3
  store i1 true, ptr %4, align 1
  br label %39

22:                                               ; preds = %14
  %23 = getelementptr inbounds nuw %"class.cv::MotionJpegCapture", ptr %11, i32 0, i32 3
  %24 = call noundef i64 @_ZNKSt5dequeISt4pairImjESaIS1_EE4sizeEv(ptr noundef nonnull align 8 dereferenceable(80) %23) #3
  %25 = uitofp i64 %24 to double
  %26 = load double, ptr %7, align 8, !tbaa !10
  %27 = fcmp ogt double %25, %26
  br i1 %27, label %28, label %36

28:                                               ; preds = %22
  call void @llvm.lifetime.start.p0(i64 32, ptr %9) #3
  call void @llvm.lifetime.start.p0(i64 32, ptr %10) #3
  %29 = getelementptr inbounds nuw %"class.cv::MotionJpegCapture", ptr %11, i32 0, i32 3
  call void @_ZNSt5dequeISt4pairImjESaIS1_EE5beginEv(ptr dead_on_unwind writable sret(%"struct.std::_Deque_iterator") align 8 %10, ptr noundef nonnull align 8 dereferenceable(80) %29) #3
  %30 = load double, ptr %7, align 8, !tbaa !10
  %31 = fsub double %30, 1.000000e+00
  %32 = fptosi double %31 to i32
  %33 = sext i32 %32 to i64
  call void @_ZStplRKSt15_Deque_iteratorISt4pairImjERS1_PS1_El(ptr dead_on_unwind writable sret(%"struct.std::_Deque_iterator") align 8 %9, ptr noundef nonnull align 8 dereferenceable(32) %10, i64 noundef %33) #3
  %34 = getelementptr inbounds nuw %"class.cv::MotionJpegCapture", ptr %11, i32 0, i32 4
  call void @llvm.memcpy.p0.p0.i64(ptr align 8 %34, ptr align 8 %9, i64 32, i1 false), !tbaa.struct !39
  call void @llvm.lifetime.end.p0(i64 32, ptr %10) #3
  call void @llvm.lifetime.end.p0(i64 32, ptr %9) #3
  %35 = getelementptr inbounds nuw %"class.cv::MotionJpegCapture", ptr %11, i32 0, i32 2
  store i8 0, ptr %35, align 8, !tbaa !12
  store i1 true, ptr %4, align 1
  br label %39

36:                                               ; preds = %22
  br label %37

37:                                               ; preds = %36
  br label %38

38:                                               ; preds = %37, %3
  store i1 false, ptr %4, align 1
  br label %39

39:                                               ; preds = %38, %28, %18
  %40 = load i1, ptr %4, align 1
  ret i1 %40
}