; Function Attrs: mustprogress nofree norecurse nosync nounwind willreturn memory(read, argmem: readwrite, inaccessiblemem: none) uwtable
define hidden noundef zeroext i1 @_ZN2cv17MotionJpegCapture11setPropertyEid(ptr noundef nonnull align 8 captures(none) dereferenceable(256) %0, i32 noundef %1, double noundef %2) unnamed_addr #3 align 2 personality ptr @__gxx_personality_v0 {
  %4 = icmp eq i32 %1, 1
  br i1 %4, label %5, label %80

5:                                                ; preds = %3
  %6 = fptosi double %2 to i32
  %7 = icmp eq i32 %6, 0
  br i1 %7, label %8, label %19

8:                                                ; preds = %5
  %9 = getelementptr inbounds nuw i8, ptr %0, i64 24
  store i8 1, ptr %9, align 8, !tbaa !3
  %10 = getelementptr inbounds nuw i8, ptr %0, i64 80
  %11 = load ptr, ptr %10, align 8, !tbaa !35, !noalias !36
  %12 = getelementptr inbounds nuw i8, ptr %0, i64 88
  %13 = load ptr, ptr %12, align 8, !tbaa !39, !noalias !36
  %14 = getelementptr inbounds nuw i8, ptr %0, i64 96
  %15 = load ptr, ptr %14, align 8, !tbaa !40, !noalias !36
  %16 = getelementptr inbounds nuw i8, ptr %0, i64 104
  %17 = load ptr, ptr %16, align 8, !tbaa !41, !noalias !36
  %18 = getelementptr inbounds nuw i8, ptr %0, i64 112
  store ptr %11, ptr %18, align 8, !tbaa !42
  %.sroa.411.0..sroa_idx = getelementptr inbounds nuw i8, ptr %0, i64 120
  store ptr %13, ptr %.sroa.411.0..sroa_idx, align 8, !tbaa !42
  %.sroa.5.0..sroa_idx = getelementptr inbounds nuw i8, ptr %0, i64 128
  store ptr %15, ptr %.sroa.5.0..sroa_idx, align 8, !tbaa !42
  %.sroa.612.0..sroa_idx = getelementptr inbounds nuw i8, ptr %0, i64 136
  store ptr %17, ptr %.sroa.612.0..sroa_idx, align 8, !tbaa !43
  br label %80

19:                                               ; preds = %5
  %20 = getelementptr inbounds nuw i8, ptr %0, i64 80
  %21 = getelementptr inbounds nuw i8, ptr %0, i64 48
  %22 = getelementptr inbounds nuw i8, ptr %0, i64 104
  %23 = load ptr, ptr %22, align 8, !tbaa !41
  %24 = getelementptr inbounds nuw i8, ptr %0, i64 72
  %25 = load ptr, ptr %24, align 8, !tbaa !41
  %26 = ptrtoint ptr %23 to i64
  %27 = ptrtoint ptr %25 to i64
  %28 = sub i64 %26, %27
  %29 = ashr exact i64 %28, 3
  %30 = icmp ne ptr %23, null
  %.neg.i.i = sext i1 %30 to i64
  %31 = add nsw i64 %29, %.neg.i.i
  %32 = shl nsw i64 %31, 5
  %33 = load ptr, ptr %20, align 8, !tbaa !35
  %34 = getelementptr inbounds nuw i8, ptr %0, i64 88
  %35 = load ptr, ptr %34, align 8, !tbaa !39
  %36 = ptrtoint ptr %33 to i64
  %37 = ptrtoint ptr %35 to i64
  %38 = sub i64 %36, %37
  %39 = ashr exact i64 %38, 4
  %40 = add nsw i64 %32, %39
  %41 = getelementptr inbounds nuw i8, ptr %0, i64 64
  %42 = load ptr, ptr %41, align 8, !tbaa !40
  %43 = load ptr, ptr %21, align 8, !tbaa !35
  %44 = ptrtoint ptr %42 to i64
  %45 = ptrtoint ptr %43 to i64
  %46 = sub i64 %44, %45
  %47 = ashr exact i64 %46, 4
  %48 = add nsw i64 %40, %47
  %49 = uitofp i64 %48 to double
  %50 = fcmp olt double %2, %49
  br i1 %50, label %51, label %80

51:                                               ; preds = %19
  %52 = getelementptr inbounds nuw i8, ptr %0, i64 56
  %53 = load ptr, ptr %52, align 8, !tbaa !39, !noalias !44
  %54 = fadd double %2, -1.000000e+00
  %55 = fptosi double %54 to i32
  %56 = sext i32 %55 to i64
  %57 = ptrtoint ptr %53 to i64
  %58 = sub i64 %45, %57
  %59 = ashr exact i64 %58, 4
  %60 = add nsw i64 %59, %56
  %61 = icmp sgt i64 %60, -1
  br i1 %61, label %62, label %68

62:                                               ; preds = %51
  %63 = icmp samesign ult i64 %60, 32
  br i1 %63, label %64, label %66

64:                                               ; preds = %62
  %65 = getelementptr inbounds %"struct.std::pair", ptr %43, i64 %56
  br label %_ZStplRKSt15_Deque_iteratorISt4pairImjERS1_PS1_El.exit

66:                                               ; preds = %62
  %67 = lshr i64 %60, 5
  br label %70

68:                                               ; preds = %51
  %69 = ashr i64 %60, 5
  br label %70

70:                                               ; preds = %68, %66
  %71 = phi i64 [ %67, %66 ], [ %69, %68 ]
  %72 = getelementptr inbounds ptr, ptr %25, i64 %71
  %73 = load ptr, ptr %72, align 8, !tbaa !42, !noalias !47
  %74 = getelementptr inbounds nuw i8, ptr %73, i64 512
  %75 = shl nsw i64 %71, 5
  %76 = sub nsw i64 %60, %75
  %77 = getelementptr inbounds %"struct.std::pair", ptr %73, i64 %76
  br label %_ZStplRKSt15_Deque_iteratorISt4pairImjERS1_PS1_El.exit

_ZStplRKSt15_Deque_iteratorISt4pairImjERS1_PS1_El.exit: ; preds = %64, %70
  %.sroa.47.0 = phi ptr [ %53, %64 ], [ %73, %70 ]
  %.sroa.68.0 = phi ptr [ %42, %64 ], [ %74, %70 ]
  %.sroa.89.0 = phi ptr [ %25, %64 ], [ %72, %70 ]
  %storemerge.i.i = phi ptr [ %65, %64 ], [ %77, %70 ]
  %78 = getelementptr inbounds nuw i8, ptr %0, i64 112
  store ptr %storemerge.i.i, ptr %78, align 8, !tbaa !42
  %.sroa.47.0..sroa_idx = getelementptr inbounds nuw i8, ptr %0, i64 120
  store ptr %.sroa.47.0, ptr %.sroa.47.0..sroa_idx, align 8, !tbaa !42
  %.sroa.68.0..sroa_idx = getelementptr inbounds nuw i8, ptr %0, i64 128
  store ptr %.sroa.68.0, ptr %.sroa.68.0..sroa_idx, align 8, !tbaa !42
  %.sroa.89.0..sroa_idx = getelementptr inbounds nuw i8, ptr %0, i64 136
  store ptr %.sroa.89.0, ptr %.sroa.89.0..sroa_idx, align 8, !tbaa !43
  %79 = getelementptr inbounds nuw i8, ptr %0, i64 24
  store i8 0, ptr %79, align 8, !tbaa !3
  br label %80

80:                                               ; preds = %3, %19, %_ZStplRKSt15_Deque_iteratorISt4pairImjERS1_PS1_El.exit, %8
  %.0 = phi i1 [ true, %8 ], [ true, %_ZStplRKSt15_Deque_iteratorISt4pairImjERS1_PS1_El.exit ], [ false, %19 ], [ false, %3 ]
  ret i1 %.0
}